(lp0
(S'2g cambridge leisure park cherry hinton road cherry hinton'
p1
S'[restaurant_address]'
p2
tp3
a(S'cambridge city football club milton road chestreeterton'
p4
S'[restaurant_address]'
p5
tp6
a(S'doubletree by hilton cambridge granta place mill lane'
p7
S'[restaurant_address]'
p8
tp9
a(S'cambridge lodge hotel 139 huntingdon road city centre'
p10
S'[restaurant_address]'
p11
tp12
a(S'g4 cambridge leisure park clifton way cherry hinton'
p13
S'[restaurant_address]'
p14
tp15
a(S'cambridge city football club milton road chesterton'
p16
S'[restaurant_address]'
p17
tp18
a(S'de vere university arms regent street city centre'
p19
S'[restaurant_address]'
p20
tp21
a(S'st . michael s church trinity street city centre'
p22
S'[restaurant_address]'
p23
tp24
a(S'cambridge leisure park clifton way cherry hinton'
p25
S'[restaurant_address]'
p26
tp27
a(S'cambridge leisure park clifton way cherry hinton'
p28
S'[restaurant_address]'
p29
tp30
a(S'cambridge retail park newmarket road fen ditton'
p31
S'[restaurant_address]'
p32
tp33
a(S'169 high street chestreeterton chestreeterton'
p34
S'[restaurant_address]'
p35
tp36
a(S'5 joroadans yaroad bridge street city centre'
p37
S'[restaurant_address]'
p38
tp39
a(S'hotel felix whitehouse lane huntingdon road'
p40
S'[restaurant_address]'
p41
tp42
a(S'grafton hotel 619 newmarket road fen ditton'
p43
S'[restaurant_address]'
p44
tp45
a(S'43 high street cherry hinton cherry hinton'
p46
S'[restaurant_address]'
p47
tp48
a(S'5 jordans yard bridge street city centre'
p49
S'[restaurant_address]'
p50
tp51
a(S'22 chestreeterton road chestreeterton'
p52
S'[restaurant_address]'
p53
tp54
a(S'the little rose 37 trumpington street'
p55
S'[restaurant_address]'
p56
tp57
a(S'169 high street chesterton chesterton'
p58
S'[restaurant_address]'
p59
tp60
a(S'66 chestreeterton road chestreeterton'
p61
S'[restaurant_address]'
p62
tp63
a(S'crowne plaza hotel 20 downing street'
p64
S'[restaurant_address]'
p65
tp66
a(S'the good luck chinese food takeaway'
p67
S'[restaurant_name]'
p68
tp69
a(S'82 cherry hinton road cherry hinton'
p70
S'[restaurant_address]'
p71
tp72
a(S'64 cherry hinton road cherry hinton'
p73
S'[restaurant_address]'
p74
tp75
a(S'35 saint andrews street city centre'
p76
S'[restaurant_address]'
p77
tp78
a(S'41518 castreetle street city centre'
p79
S'[restaurant_address]'
p80
tp81
a(S'stazione restaurant and coffee bar'
p82
S'[restaurant_name]'
p83
tp84
a(S'cambridge leisure park clifton way'
p85
S'[restaurant_address]'
p86
tp87
a(S'191 histreeton road chestreeterton'
p88
S'[restaurant_address]'
p89
tp90
a(S'the river bar steakhouse and grill'
p91
S'[restaurant_name]'
p92
tp93
a(S'68 histreeton road chestreeterton'
p94
S'[restaurant_address]'
p95
tp96
a(S'51 trumpington street city centre'
p97
S'[restaurant_address]'
p98
tp99
a(S'71 castreetle street city centre'
p100
S'[restaurant_address]'
p101
tp102
a(S'12 st . johns street city centre'
p103
S'[restaurant_address]'
p104
tp105
a(S'40210 millers yaroad city centre'
p106
S'[restaurant_address]'
p107
tp108
a(S'205 victoria road chestreeterton'
p109
S'[restaurant_address]'
p110
tp111
a(S'41518 castle street city centre'
p112
S'[restaurant_address]'
p113
tp114
a(S'17 magdalene street city centre'
p115
S'[restaurant_address]'
p116
tp117
a(S'15 magdalene street city centre'
p118
S'[restaurant_address]'
p119
tp120
a(S'darrys cookhouse and wine shop'
p121
S'[restaurant_name]'
p122
tp123
a(S'40210 millers yard city centre'
p124
S'[restaurant_address]'
p125
tp126
a(S'victoria avenue chestreeterton'
p127
S'[restaurant_address]'
p128
tp129
a(S'39 burleigh street city centre'
p130
S'[restaurant_address]'
p131
tp132
a(S'10 homerton street city centre'
p133
S'[restaurant_address]'
p134
tp135
a(S'21 burleigh street city centre'
p136
S'[restaurant_address]'
p137
tp138
a(S'finders corner newmarket road'
p139
S'[restaurant_address]'
p140
tp141
a(S'106 regent street city centre'
p142
S'[restaurant_address]'
p143
tp144
a(S'529 newmarket road fen ditton'
p145
S'[restaurant_address]'
p146
tp147
a(S'451 newmarket road fen ditton'
p148
S'[restaurant_address]'
p149
tp150
a(S'40270 king street city centre'
p151
S'[restaurant_address]'
p152
tp153
a(S'maharajah tandoori restaurant'
p154
S'[restaurant_name]'
p155
tp156
a(S'20 milton road chestreeterton'
p157
S'[restaurant_address]'
p158
tp159
a(S'22 chesterton road chesterton'
p160
S'[restaurant_address]'
p161
tp162
a(S'12 norfolk street city centre'
p163
S'[restaurant_address]'
p164
tp165
a(S'108 regent street city centre'
p166
S'[restaurant_address]'
p167
tp168
a(S'40428 king street city centre'
p169
S'[restaurant_address]'
p170
tp171
a(S'183 eastreet road city centre'
p172
S'[restaurant_address]'
p173
tp174
a(S'12 lensfield road city centre'
p175
S'[restaurant_address]'
p176
tp177
a(S'the cow pizza kitchen and bar'
p178
S'[restaurant_name]'
p179
tp180
a(S'66 chesterton road chesterton'
p181
S'[restaurant_address]'
p182
tp183
a(S'free school lane city centre'
p184
S'[restaurant_address]'
p185
tp186
a(S'12 bridge street city centre'
p187
S'[restaurant_address]'
p188
tp189
a(S'2 sturton street city centre'
p190
S'[restaurant_address]'
p191
tp192
a(S'71 castle street city centre'
p193
S'[restaurant_address]'
p194
tp195
a(S'7 milton road chestreeterton'
p196
S'[restaurant_address]'
p197
tp198
a(S'86 regent street city centre'
p199
S'[restaurant_address]'
p200
tp201
a(S'72 regent street city centre'
p202
S'[restaurant_address]'
p203
tp204
a(S'205 victoria road chesterton'
p205
S'[restaurant_address]'
p206
tp207
a(S'30 bridge street city centre'
p208
S'[restaurant_address]'
p209
tp210
a(S'8 norfolk street city centre'
p211
S'[restaurant_address]'
p212
tp213
a(S'84 regent street city centre'
p214
S'[restaurant_address]'
p215
tp216
a(S'32 bridge street city centre'
p217
S'[restaurant_address]'
p218
tp219
a(S'2 rose crescent city centre'
p220
S'[restaurant_address]'
p221
tp222
a(S'35 millers yaroad mill lane'
p223
S'[restaurant_address]'
p224
tp225
a(S'huntingdon road city centre'
p226
S'[restaurant_address]'
p227
tp228
a(S'24 green street city centre'
p229
S'[restaurant_address]'
p230
tp231
a(S'4 kings parade city centre'
p232
S'[restaurant_address]'
p233
tp234
a(S'victoria avenue chesterton'
p235
S'[restaurant_address]'
p236
tp237
a(S'milton road chestreeterton'
p238
S'[restaurant_address]'
p239
tp240
a(S'191 histon road chesterton'
p241
S'[restaurant_address]'
p242
tp243
a(S'shanghai family restaurant'
p244
S'[restaurant_name]'
p245
tp246
a(S'cambridge lodge restaurant'
p247
S'[restaurant_name]'
p248
tp249
a(S'quayside off bridge street'
p250
S'[restaurant_address]'
p251
tp252
a(S'54 king street city centre'
p253
S'[restaurant_address]'
p254
tp255
a(S'7 barnwell road fen ditton'
p256
S'[restaurant_address]'
p257
tp258
a(S'12 market hill city centre'
p259
S'[restaurant_address]'
p260
tp261
a(S'midsummer house restaurant'
p262
S'[restaurant_name]'
p263
tp264
a(S'regent street city centre'
p265
S'[restaurant_address]'
p266
tp267
a(S'regent street city centre'
p268
S'[restaurant_address]'
p269
tp270
a(S'regent street city centre'
p271
S'[restaurant_address]'
p272
tp273
a(S'68 histon road chesterton'
p274
S'[restaurant_address]'
p275
tp276
a(S'59 hills road city centre'
p277
S'[restaurant_address]'
p278
tp279
a(S'20 milton road chesterton'
p280
S'[restaurant_address]'
p281
tp282
a(S'196 mill road city centre'
p283
S'[restaurant_address]'
p284
tp285
a(S'183 east road city centre'
p286
S'[restaurant_address]'
p287
tp288
a(S'100 mill road city centre'
p289
S'[restaurant_address]'
p290
tp291
a(S'newmarket road fen ditton'
p292
S'[restaurant_address]'
p293
tp294
a(S'3334 saint andrews street'
p295
S'[restaurant_address]'
p296
tp297
a(S'thompsons lane fen ditton'
p298
S'[restaurant_address]'
p299
tp300
a(S'35 millers yard mill lane'
p301
S'[restaurant_address]'
p302
tp303
a(S'napier street city centre'
p304
S'[restaurant_address]'
p305
tp306
a(S'106 mill road city centre'
p307
S'[restaurant_address]'
p308
tp309
a(S'290 mill road city centre'
p310
S'[restaurant_address]'
p311
tp312
a(S'regent street city centre'
p313
S'[restaurant_address]'
p314
tp315
a(S'bridge street city centre'
p316
S'[restaurant_address]'
p317
tp318
a(S'sesame restaurant and bar'
p319
S'[restaurant_name]'
p320
tp321
a(S'17 hills road city centre'
p322
S'[restaurant_address]'
p323
tp324
a(S'11 peas hill city centre'
p325
S'[restaurant_address]'
p326
tp327
a(S'74 mill road city centre'
p328
S'[restaurant_address]'
p329
tp330
a(S'88 mill road city centre'
p331
S'[restaurant_address]'
p332
tp333
a(S'7 milton road chesterton'
p334
S'[restaurant_address]'
p335
tp336
a(S'pizza express fen ditton'
p337
S'[restaurant_name]'
p338
tp339
a(S'grafton hotel restaurant'
p340
S'[restaurant_name]'
p341
tp342
a(S'the cambridge chop house'
p343
S'[restaurant_name]'
p344
tp345
a(S'52 mill road city centre'
p346
S'[restaurant_address]'
p347
tp348
a(S'pizza hut cherry hinton'
p349
S'[restaurant_name]'
p350
tp351
a(S'stazione and coffee bar'
p352
S'[restaurant_name]'
p353
tp354
a(S'market hill city centre'
p355
S'[restaurant_address]'
p356
tp357
a(S'chiquito restaurant bar'
p358
S'[restaurant_name]'
p359
tp360
a(S'37 newnham road newnham'
p361
S'[restaurant_address]'
p362
tp363
a(S'hotel du vin and bistro'
p364
S'[restaurant_name]'
p365
tp366
a(S'1519 trumpington street'
p367
S'[restaurant_address]'
p368
tp369
a(S'36 saint andrews street'
p370
S'[restaurant_address]'
p371
tp372
a(S'2124 northampton street'
p373
S'[restaurant_address]'
p374
tp375
a(S'35 newnham road newnham'
p376
S'[restaurant_address]'
p377
tp378
a(S'31 newnham road newnham'
p379
S'[restaurant_address]'
p380
tp381
a(S'king street city centre'
p382
S'[restaurant_address]'
p383
tp384
a(S'de luca cucina and bar'
p385
S'[restaurant_name]'
p386
tp387
a(S'the varsity restaurant'
p388
S'[restaurant_name]'
p389
tp390
a(S'fitzbillies restaurant'
p391
S'[restaurant_name]'
p392
tp393
a(S'saint johns chop house'
p394
S'[restaurant_name]'
p395
tp396
a(S'milton road chesterton'
p397
S'[restaurant_address]'
p398
tp399
a(S'hills road city centre'
p400
S'[restaurant_address]'
p401
tp402
a(S'gourmet burger kitchen'
p403
S'[restaurant_name]'
p404
tp405
a(S'pizza hut city centre'
p406
S'[restaurant_name]'
p407
tp408
a(S'2124 northampton road'
p409
S'[restaurant_address]'
p410
tp411
a(S'mill road city centre'
p412
S'[restaurant_address]'
p413
tp414
a(S'bloomsbury restaurant'
p415
S'[restaurant_name]'
p416
tp417
a(S'jesus lane fen ditton'
p418
S'[restaurant_address]'
p419
tp420
a(S'don pasquale pizzeria'
p421
S'[restaurant_name]'
p422
tp423
a(S'restaurant alimentum'
p424
S'[restaurant_name]'
p425
tp426
a(S'pizza hut fen ditton'
p427
S'[restaurant_name]'
p428
tp429
a(S'corn exchange street'
p430
S'[restaurant_address]'
p431
tp432
a(S'city stop restaurant'
p433
S'[restaurant_name]'
p434
tp435
a(S'the slug and lettuce'
p436
S'[restaurant_name]'
p437
tp438
a(S'molecular gastronomy'
p439
S'[value_food]'
p440
tp441
a(S'riverside brasserie'
p442
S'[restaurant_name]'
p443
tp444
a(S'jinling noodle bar'
p445
S'[restaurant_name]'
p446
tp447
a(S'maharajah tandoori'
p448
S'[restaurant_name]'
p449
tp450
a(S'1416 bridge street'
p451
S'[restaurant_address]'
p452
tp453
a(S'4753 regent street'
p454
S'[restaurant_address]'
p455
tp456
a(S'pipasha restaurant'
p457
S'[restaurant_name]'
p458
tp459
a(S'nandos city centre'
p460
S'[restaurant_name]'
p461
tp462
a(S'mahal of cambridge'
p463
S'[restaurant_name]'
p464
tp465
a(S'frankie and bennys'
p466
S'[restaurant_name]'
p467
tp468
a(S'grafton restaurant'
p469
S'[restaurant_name]'
p470
tp471
a(S'152154 hills road'
p472
S'[restaurant_address]'
p473
tp474
a(S'backstreet bistro'
p475
S'[restaurant_name]'
p476
tp477
a(S'michaelhouse cafe'
p478
S'[restaurant_name]'
p479
tp480
a(S'du vin and bistro'
p481
S'[restaurant_name]'
p482
tp483
a(S'da vinci pizzeria'
p484
S'[restaurant_name]'
p485
tp486
a(S'the copper kettle'
p487
S'[restaurant_name]'
p488
tp489
a(S'yippee noodle bar'
p490
S'[restaurant_name]'
p491
tp492
a(S'saffron brasserie'
p493
S'[restaurant_name]'
p494
tp495
a(S'peking restaurant'
p496
S'[restaurant_name]'
p497
tp498
a(S'3435 green street'
p499
S'[restaurant_address]'
p500
tp501
a(S'shiraz restaurant'
p502
S'[restaurant_name]'
p503
tp504
a(S'the missing sock'
p505
S'[restaurant_name]'
p506
tp507
a(S'83 regent street'
p508
S'[restaurant_address]'
p509
tp510
a(S'the golden curry'
p511
S'[restaurant_name]'
p512
tp513
a(S'restaurant 2 two'
p514
S'[restaurant_name]'
p515
tp516
a(S'6 lensfield road'
p517
S'[restaurant_address]'
p518
tp519
a(S'33 bridge street'
p520
S'[restaurant_address]'
p521
tp522
a(S'46 rose crescent'
p523
S'[restaurant_address]'
p524
tp525
a(S'midsummer common'
p526
S'[restaurant_address]'
p527
tp528
a(S'high price range'
p529
S'[value_princerange]'
p530
tp531
a(S'tandoori palace'
p532
S'[restaurant_name]'
p533
tp534
a(S'dojo noodle bar'
p535
S'[restaurant_name]'
p536
tp537
a(S'zizzi cambridge'
p538
S'[restaurant_name]'
p539
tp540
a(S'shanghai family'
p541
S'[restaurant_name]'
p542
tp543
a(S'cambridge lodge'
p544
S'[restaurant_name]'
p545
tp546
a(S'travellers rest'
p547
S'[restaurant_name]'
p548
tp549
a(S'efes restaurant'
p550
S'[restaurant_name]'
p551
tp552
a(S'midsummer house'
p553
S'[restaurant_name]'
p554
tp555
a(S'modern european'
p556
S'[value_food]'
p557
tp558
a(S'modern european'
p559
g557
tp560
a(S'modern european'
p561
g557
tp562
a(S'modern european'
p563
g557
tp564
a(S'modern european'
p565
g557
tp566
a(S'modern american'
p567
g440
tp568
a(S'mid price range'
p569
g530
tp570
a(S'ask restaurant'
p571
S'[restaurant_name]'
p572
tp573
a(S'lan hong house'
p574
S'[restaurant_name]'
p575
tp576
a(S'the oak bistro'
p577
S'[restaurant_name]'
p578
tp579
a(S'the lucky star'
p580
S'[restaurant_name]'
p581
tp582
a(S'royal standard'
p583
S'[restaurant_name]'
p584
tp585
a(S'1 kings parade'
p586
S'[restaurant_address]'
p587
tp588
a(S'sitar tandoori'
p589
S'[restaurant_name]'
p590
tp591
a(S'sesame and bar'
p592
S'[restaurant_name]'
p593
tp594
a(S'asian oriental'
p595
g557
tp596
a(S'asian oriental'
p597
g557
tp598
a(S'asian oriental'
p599
g557
tp600
a(S'asian oriental'
p601
g557
tp602
a(S'north american'
p603
g557
tp604
a(S'asian oriental'
p605
g557
tp606
a(S'latin american'
p607
g440
tp608
a(S'middle eastern'
p609
g440
tp610
a(S'north american'
p611
g440
tp612
a(S'pizza express'
p613
S'[restaurant_name]'
p614
tp615
a(S'restaurant 17'
p616
S'[restaurant_name]'
p617
tp618
a(S'ugly duckling'
p619
S'[restaurant_name]'
p620
tp621
a(S'la margherita'
p622
S'[restaurant_name]'
p623
tp624
a(S'international'
p625
g557
tp626
a(S'international'
p627
g557
tp628
a(S'international'
p629
g557
tp630
a(S'mediterranean'
p631
g557
tp632
a(S'mediterranean'
p633
g557
tp634
a(S'mediterranean'
p635
g557
tp636
a(S'curry garden'
p637
S'[restaurant_name]'
p638
tp639
a(S'taj tandoori'
p640
S'[restaurant_name]'
p641
tp642
a(S'curry prince'
p643
S'[restaurant_name]'
p644
tp645
a(S'charlie chan'
p646
S'[restaurant_name]'
p647
tp648
a(S'chiquito bar'
p649
S'[restaurant_name]'
p650
tp651
a(S'little seoul'
p652
S'[restaurant_name]'
p653
tp654
a(S'golden house'
p655
S'[restaurant_name]'
p656
tp657
a(S'j restaurant'
p658
S'[restaurant_name]'
p659
tp660
a(S'the gardenia'
p661
S'[restaurant_name]'
p662
tp663
a(S'tang chinese'
p664
S'[restaurant_name]'
p665
tp666
a(S'bangkok city'
p667
S'[restaurant_name]'
p668
tp669
a(S'scandinavian'
p670
g440
tp671
a(S'australasian'
p672
g440
tp673
a(S'the americas'
p674
g440
tp675
a(S'01223323737'
p676
S'[restaurant_phone]'
p677
tp678
a(S'01223812660'
p679
S'[restaurant_phone]'
p680
tp681
a(S'01223302330'
p682
S'[restaurant_phone]'
p683
tp684
a(S'01223244149'
p685
S'[restaurant_phone]'
p686
tp687
a(S'01223323737'
p688
S'[restaurant_phone]'
p689
tp690
a(S'01223412299'
p691
S'[restaurant_phone]'
p692
tp693
a(S'01223413000'
p694
S'[restaurant_phone]'
p695
tp696
a(S'01223248882'
p697
S'[restaurant_phone]'
p698
tp699
a(S'01223352607'
p700
S'[restaurant_phone]'
p701
tp702
a(S'01223566388'
p703
S'[restaurant_phone]'
p704
tp705
a(S'01223361763'
p706
S'[restaurant_phone]'
p707
tp708
a(S'01223368786'
p709
S'[restaurant_phone]'
p710
tp711
a(S'01223324033'
p712
S'[restaurant_phone]'
p713
tp714
a(S'01223337766'
p715
S'[restaurant_phone]'
p716
tp717
a(S'01223364917'
p718
S'[restaurant_phone]'
p719
tp720
a(S'01223566188'
p721
S'[restaurant_phone]'
p722
tp723
a(S'01223356666'
p724
S'[restaurant_phone]'
p725
tp726
a(S'01223306306'
p727
S'[restaurant_phone]'
p728
tp729
a(S'01223506055'
p730
S'[restaurant_phone]'
p731
tp732
a(S'01223259988'
p733
S'[restaurant_phone]'
p734
tp735
a(S'01223323639'
p736
S'[restaurant_phone]'
p737
tp738
a(S'01223400170'
p739
S'[restaurant_phone]'
p740
tp741
a(S'01799521260'
p742
S'[restaurant_phone]'
p743
tp744
a(S'01223367755'
p745
S'[restaurant_phone]'
p746
tp747
a(S'01462432565'
p748
S'[restaurant_phone]'
p749
tp750
a(S'the varsity'
p751
S'[restaurant_name]'
p752
tp753
a(S'01223356060'
p754
S'[restaurant_phone]'
p755
tp756
a(S'01223505015'
p757
S'[restaurant_phone]'
p758
tp759
a(S'01223329432'
p760
S'[restaurant_phone]'
p761
tp762
a(S'01223366668'
p763
S'[restaurant_phone]'
p764
tp765
a(S'01223309147'
p766
S'[restaurant_phone]'
p767
tp768
a(S'01223302800'
p769
S'[restaurant_phone]'
p770
tp771
a(S'01223227330'
p772
S'[restaurant_phone]'
p773
tp774
a(S'01223358399'
p775
S'[restaurant_phone]'
p776
tp777
a(S'08719429180'
p778
S'[restaurant_phone]'
p779
tp780
a(S'01223362456'
p781
S'[restaurant_phone]'
p782
tp783
a(S'01223464630'
p784
S'[restaurant_phone]'
p785
tp786
a(S'01223351707'
p787
S'[restaurant_phone]'
p788
tp789
a(S'01223351880'
p790
S'[restaurant_phone]'
p791
tp792
a(S'01223462354'
p793
S'[restaurant_phone]'
p794
tp795
a(S'01223350420'
p796
S'[restaurant_phone]'
p797
tp798
a(S'01223327908'
p799
S'[restaurant_phone]'
p800
tp801
a(S'01223323361'
p802
S'[restaurant_phone]'
p803
tp804
a(S'01223365068'
p805
S'[restaurant_phone]'
p806
tp807
a(S'01223244277'
p808
S'[restaurant_phone]'
p809
tp810
a(S'fitzbillies'
p811
S'[restaurant_name]'
p812
tp813
a(S'01223352500'
p814
S'[restaurant_phone]'
p815
tp816
a(S'01223308681'
p817
S'[restaurant_phone]'
p818
tp819
a(S'01223363471'
p820
S'[restaurant_phone]'
p821
tp822
a(S'01223315232'
p823
S'[restaurant_phone]'
p824
tp825
a(S'01223518111'
p826
S'[restaurant_phone]'
p827
tp828
a(S'01223360966'
p829
S'[restaurant_phone]'
p830
tp831
a(S'01223302010'
p832
S'[restaurant_phone]'
p833
tp834
a(S'01223353110'
p835
S'[restaurant_phone]'
p836
tp837
a(S'01223323737'
p838
S'[restaurant_phone]'
p839
tp840
a(S'01842753771'
p841
S'[restaurant_phone]'
p842
tp843
a(S'01223307581'
p844
S'[restaurant_phone]'
p845
tp846
a(S'01223362054'
p847
S'[restaurant_phone]'
p848
tp849
a(S'01223308871'
p850
S'[restaurant_phone]'
p851
tp852
a(S'01223367660'
p853
S'[restaurant_phone]'
p854
tp855
a(S'01223356354'
p856
S'[restaurant_phone]'
p857
tp858
a(S'01223365599'
p859
S'[restaurant_phone]'
p860
tp861
a(S'01223577786'
p862
S'[restaurant_phone]'
p863
tp864
a(S'01223327908'
p865
S'[restaurant_phone]'
p866
tp867
a(S'royal spice'
p868
S'[restaurant_name]'
p869
tp870
a(S'01733553355'
p871
S'[restaurant_phone]'
p872
tp873
a(S'01223568988'
p874
S'[restaurant_phone]'
p875
tp876
a(S'01223464550'
p877
S'[restaurant_phone]'
p878
tp879
a(S'01223353942'
p880
S'[restaurant_phone]'
p881
tp882
a(S'01223350688'
p883
S'[restaurant_phone]'
p884
tp885
a(S'01223727410'
p886
S'[restaurant_phone]'
p887
tp888
a(S'01223354679'
p889
S'[restaurant_phone]'
p890
tp891
a(S'01223362525'
p892
S'[restaurant_phone]'
p893
tp894
a(S'01223301761'
p895
S'[restaurant_phone]'
p896
tp897
a(S'01223362433'
p898
S'[restaurant_phone]'
p899
tp900
a(S'01223360409'
p901
S'[restaurant_phone]'
p902
tp903
a(S'01223324033'
p904
S'[restaurant_phone]'
p905
tp906
a(S'01223323178'
p907
S'[restaurant_phone]'
p908
tp909
a(S'01223363270'
p910
S'[restaurant_phone]'
p911
tp912
a(S'saigon city'
p913
S'[restaurant_name]'
p914
tp915
a(S'01223356555'
p916
S'[restaurant_phone]'
p917
tp918
a(S'01223354755'
p919
S'[restaurant_phone]'
p920
tp921
a(S'01223412430'
p922
S'[restaurant_phone]'
p923
tp924
a(S'01223277977'
p925
S'[restaurant_phone]'
p926
tp927
a(S'india house'
p928
S'[restaurant_name]'
p929
tp930
a(S'01223461661'
p931
S'[restaurant_phone]'
p932
tp933
a(S'01223355166'
p934
S'[restaurant_phone]'
p935
tp936
a(S'01223241387'
p937
S'[restaurant_phone]'
p938
tp939
a(S'01223366552'
p940
S'[restaurant_phone]'
p941
tp942
a(S'01223307030'
p943
S'[restaurant_phone]'
p944
tp945
a(S'clowns cafe'
p946
S'[restaurant_name]'
p947
tp948
a(S'01223355711'
p949
S'[restaurant_phone]'
p950
tp951
a(S'01223362372'
p952
S'[restaurant_phone]'
p953
tp954
a(S'01223355012'
p955
S'[restaurant_phone]'
p956
tp957
a(S'01223357187'
p958
S'[restaurant_phone]'
p959
tp960
a(S'01223324351'
p961
S'[restaurant_phone]'
p962
tp963
a(S'01223276182'
p964
S'[restaurant_phone]'
p965
tp966
a(S'curry queen'
p967
S'[restaurant_name]'
p968
tp969
a(S'01223351027'
p970
S'[restaurant_phone]'
p971
tp972
a(S'01223247877'
p973
S'[restaurant_phone]'
p974
tp975
a(S'01223244955'
p976
S'[restaurant_phone]'
p977
tp978
a(S'01223355909'
p979
S'[restaurant_phone]'
p980
tp981
a(S'01223500005'
p982
S'[restaurant_phone]'
p983
tp984
a(S'01223312598'
p985
S'[restaurant_phone]'
p986
tp987
a(S'01223350106'
p988
S'[restaurant_phone]'
p989
tp990
a(S'01223359506'
p991
S'[restaurant_phone]'
p992
tp993
a(S'01223311911'
p994
S'[restaurant_phone]'
p995
tp996
a(S'01223249955'
p997
S'[restaurant_phone]'
p998
tp999
a(S'01223307581'
p1000
S'[restaurant_phone]'
p1001
tp1002
a(S'01223369299'
p1003
S'[restaurant_phone]'
p1004
tp1005
a(S'01223311053'
p1006
S'[restaurant_phone]'
p1007
tp1008
a(S'01223448620'
p1009
S'[restaurant_phone]'
p1010
tp1011
a(S'01223358899'
p1012
S'[restaurant_phone]'
p1013
tp1014
a(S'01223354382'
p1015
S'[restaurant_phone]'
p1016
tp1017
a(S'portugeuese'
p1018
g440
tp1019
a(S'traditional'
p1020
g440
tp1021
a(S'light bites'
p1022
g440
tp1023
a(S'singaporean'
p1024
g440
tp1025
a(S'rice house'
p1026
S'[restaurant_name]'
p1027
tp1028
a(S'bloomsbury'
p1029
S'[restaurant_name]'
p1030
tp1031
a(S'thanh binh'
p1032
S'[restaurant_name]'
p1033
tp1034
a(S'the nirala'
p1035
S'[restaurant_name]'
p1036
tp1037
a(S'the gandhi'
p1038
S'[restaurant_name]'
p1039
tp1040
a(S'golden wok'
p1041
S'[restaurant_name]'
p1042
tp1043
a(S'sala thong'
p1044
S'[restaurant_name]'
p1045
tp1046
a(S'the hotpot'
p1047
S'[restaurant_name]'
p1048
tp1049
a(S'curry king'
p1050
S'[restaurant_name]'
p1051
tp1052
a(S'vietnamese'
p1053
g557
tp1054
a(S'portuguese'
p1055
g557
tp1056
a(S'portuguese'
p1057
g557
tp1058
a(S'sri lankan'
p1059
g440
tp1060
a(S'australian'
p1061
g440
tp1062
a(S'vegetarian'
p1063
g440
tp1064
a(S'steakhouse'
p1065
g440
tp1066
a(S'indonesian'
p1067
g440
tp1068
a(S'polynesian'
p1069
g440
tp1070
a(S'alimentum'
p1071
S'[restaurant_name]'
p1072
tp1073
a(S'yu garden'
p1074
S'[restaurant_name]'
p1075
tp1076
a(S'rice boat'
p1077
S'[restaurant_name]'
p1078
tp1079
a(S'la mimosa'
p1080
S'[restaurant_name]'
p1081
tp1082
a(S'loch fyne'
p1083
S'[restaurant_name]'
p1084
tp1085
a(S'city stop'
p1086
S'[restaurant_name]'
p1087
tp1088
a(S'hk fusion'
p1089
S'[restaurant_name]'
p1090
tp1091
a(S'caffe uno'
p1092
S'[restaurant_name]'
p1093
tp1094
a(S'wednesday'
p1095
S'[value_day]'
p1096
tp1097
a(S'gastropub'
p1098
g557
tp1099
a(S'gastropub'
p1100
g557
tp1101
a(S'gastropub'
p1102
g557
tp1103
a(S'gastropub'
p1104
g557
tp1105
a(S'expensive'
p1106
S'[value_pricerange]'
p1107
tp1108
a(S'expensive'
p1109
g1107
tp1110
a(S'expensive'
p1111
g1107
tp1112
a(S'expensive'
p1113
g1107
tp1114
a(S'expensive'
p1115
g1107
tp1116
a(S'expensive'
p1117
g1107
tp1118
a(S'expensive'
p1119
g1107
tp1120
a(S'expensive'
p1121
g1107
tp1122
a(S'expensive'
p1123
g1107
tp1124
a(S'expensive'
p1125
g1107
tp1126
a(S'expensive'
p1127
g1107
tp1128
a(S'expensive'
p1129
g1107
tp1130
a(S'expensive'
p1131
g1107
tp1132
a(S'expensive'
p1133
g1107
tp1134
a(S'expensive'
p1135
g1107
tp1136
a(S'expensive'
p1137
g1107
tp1138
a(S'expensive'
p1139
g1107
tp1140
a(S'expensive'
p1141
g1107
tp1142
a(S'expensive'
p1143
g1107
tp1144
a(S'expensive'
p1145
g1107
tp1146
a(S'expensive'
p1147
g1107
tp1148
a(S'expensive'
p1149
g1107
tp1150
a(S'expensive'
p1151
g1107
tp1152
a(S'expensive'
p1153
g1107
tp1154
a(S'expensive'
p1155
g1107
tp1156
a(S'expensive'
p1157
g1107
tp1158
a(S'expensive'
p1159
g1107
tp1160
a(S'expensive'
p1161
g1107
tp1162
a(S'expensive'
p1163
g1107
tp1164
a(S'expensive'
p1165
g1107
tp1166
a(S'expensive'
p1167
g1107
tp1168
a(S'expensive'
p1169
g1107
tp1170
a(S'expensive'
p1171
g1107
tp1172
a(S'expensive'
p1173
g1107
tp1174
a(S'expensive'
p1175
g1107
tp1176
a(S'expensive'
p1177
g1107
tp1178
a(S'expensive'
p1179
g1107
tp1180
a(S'expensive'
p1181
g1107
tp1182
a(S'expensive'
p1183
g1107
tp1184
a(S'expensive'
p1185
g1107
tp1186
a(S'expensive'
p1187
g1107
tp1188
a(S'expensive'
p1189
g1107
tp1190
a(S'expensive'
p1191
g1107
tp1192
a(S'expensive'
p1193
g1107
tp1194
a(S'expensive'
p1195
g1107
tp1196
a(S'expensive'
p1197
g1107
tp1198
a(S'expensive'
p1199
g1107
tp1200
a(S'expensive'
p1201
g1107
tp1202
a(S'expensive'
p1203
g1107
tp1204
a(S'expensive'
p1205
g1107
tp1206
a(S'expensive'
p1207
g1107
tp1208
a(S'expensive'
p1209
g1107
tp1210
a(S'expensive'
p1211
g1107
tp1212
a(S'expensive'
p1213
g1107
tp1214
a(S'expensive'
p1215
g1107
tp1216
a(S'expensive'
p1217
g1107
tp1218
a(S'expensive'
p1219
g1107
tp1220
a(S'portugese'
p1221
g440
tp1222
a(S'brazilian'
p1223
g440
tp1224
a(S'caribbean'
p1225
g440
tp1226
a(S'christmas'
p1227
g440
tp1228
a(S'cantonese'
p1229
g440
tp1230
a(S'malaysian'
p1231
g440
tp1232
a(S'crossover'
p1233
g440
tp1234
a(S'hungarian'
p1235
g440
tp1236
a(S'gastropod'
p1237
g440
tp1238
a(S'mid range'
p1239
g530
tp1240
a(S'mid price'
p1241
g530
tp1242
a(S'brasserie'
p1243
S'[restaurant_name]'
p1244
tp1245
a(S'kohinoor'
p1246
S'[restaurant_name]'
p1247
tp1248
a(S'ali baba'
p1249
S'[restaurant_name]'
p1250
tp1251
a(S'la tasca'
p1252
S'[restaurant_name]'
p1253
tp1254
a(S'wagamama'
p1255
S'[restaurant_name]'
p1256
tp1257
a(S'meze bar'
p1258
S'[restaurant_name]'
p1259
tp1260
a(S'galleria'
p1261
S'[restaurant_name]'
p1262
tp1263
a(S'graffiti'
p1264
S'[restaurant_name]'
p1265
tp1266
a(S'anatolia'
p1267
S'[restaurant_name]'
p1268
tp1269
a(S'rajmahal'
p1270
S'[restaurant_name]'
p1271
tp1272
a(S'thursday'
p1273
g1096
tp1274
a(S'saturday'
p1275
g1096
tp1276
a(S'european'
p1277
g557
tp1278
a(S'lebanese'
p1279
g557
tp1280
a(S'european'
p1281
g557
tp1282
a(S'european'
p1283
g557
tp1284
a(S'japanese'
p1285
g557
tp1286
a(S'european'
p1287
g557
tp1288
a(S'european'
p1289
g557
tp1290
a(S'european'
p1291
g557
tp1292
a(S'moderate'
p1293
g1107
tp1294
a(S'moderate'
p1295
g1107
tp1296
a(S'moderate'
p1297
g1107
tp1298
a(S'moderate'
p1299
g1107
tp1300
a(S'moderate'
p1301
g1107
tp1302
a(S'moderate'
p1303
g1107
tp1304
a(S'moderate'
p1305
g1107
tp1306
a(S'moderate'
p1307
g1107
tp1308
a(S'moderate'
p1309
g1107
tp1310
a(S'moderate'
p1311
g1107
tp1312
a(S'moderate'
p1313
g1107
tp1314
a(S'moderate'
p1315
g1107
tp1316
a(S'moderate'
p1317
g1107
tp1318
a(S'moderate'
p1319
g1107
tp1320
a(S'moderate'
p1321
g1107
tp1322
a(S'moderate'
p1323
g1107
tp1324
a(S'moderate'
p1325
g1107
tp1326
a(S'moderate'
p1327
g1107
tp1328
a(S'moderate'
p1329
g1107
tp1330
a(S'moderate'
p1331
g1107
tp1332
a(S'moderate'
p1333
g1107
tp1334
a(S'moderate'
p1335
g1107
tp1336
a(S'moderate'
p1337
g1107
tp1338
a(S'moderate'
p1339
g1107
tp1340
a(S'moderate'
p1341
g1107
tp1342
a(S'moderate'
p1343
g1107
tp1344
a(S'moderate'
p1345
g1107
tp1346
a(S'moderate'
p1347
g1107
tp1348
a(S'moderate'
p1349
g1107
tp1350
a(S'moderate'
p1351
g1107
tp1352
a(S'moderate'
p1353
g1107
tp1354
a(S'venetian'
p1355
g440
tp1356
a(S'scottish'
p1357
g440
tp1358
a(S'jamaican'
p1359
g440
tp1360
a(S'morrocan'
p1361
g440
tp1362
a(S'creative'
p1363
g440
tp1364
a(S'austrian'
p1365
g440
tp1366
a(g1359
g440
tp1367
a(S'barbeque'
p1368
g440
tp1369
a(S'barbecue'
p1370
g440
tp1371
a(S'moroccan'
p1372
g440
tp1373
a(S'eritrean'
p1374
g440
tp1375
a(S'american'
p1376
g440
tp1377
a(S'cb259aq'
p1378
S'[restaurant_postcode]'
p1379
tp1380
a(S'bedouin'
p1381
S'[restaurant_name]'
p1382
tp1383
a(S'pipasha'
p1384
S'[restaurant_name]'
p1385
tp1386
a(S'la raza'
p1387
S'[restaurant_name]'
p1388
tp1389
a(S'panahar'
p1390
S'[restaurant_name]'
p1391
tp1392
a(S'tuesday'
p1393
g1096
tp1394
a(S'italian'
p1395
g557
tp1396
a(S'chinese'
p1397
g557
tp1398
a(S'italian'
p1399
g557
tp1400
a(S'chinese'
p1401
g557
tp1402
a(S'italian'
p1403
g557
tp1404
a(S'chinese'
p1405
g557
tp1406
a(S'italian'
p1407
g557
tp1408
a(S'british'
p1409
g557
tp1410
a(S'italian'
p1411
g557
tp1412
a(S'chinese'
p1413
g557
tp1414
a(S'mexican'
p1415
g557
tp1416
a(S'italian'
p1417
g557
tp1418
a(S'chinese'
p1419
g557
tp1420
a(S'spanish'
p1421
g557
tp1422
a(S'italian'
p1423
g557
tp1424
a(S'chinese'
p1425
g557
tp1426
a(S'chinese'
p1427
g557
tp1428
a(S'british'
p1429
g557
tp1430
a(S'british'
p1431
g557
tp1432
a(S'chinese'
p1433
g557
tp1434
a(S'british'
p1435
g557
tp1436
a(S'turkish'
p1437
g557
tp1438
a(S'italian'
p1439
g557
tp1440
a(S'british'
p1441
g557
tp1442
a(S'british'
p1443
g557
tp1444
a(S'italian'
p1445
g557
tp1446
a(S'chinese'
p1447
g557
tp1448
a(S'african'
p1449
g557
tp1450
a(S'italian'
p1451
g557
tp1452
a(S'chinese'
p1453
g557
tp1454
a(S'spanish'
p1455
g557
tp1456
a(S'chinese'
p1457
g557
tp1458
a(S'chinese'
p1459
g557
tp1460
a(S'seafood'
p1461
g557
tp1462
a(S'italian'
p1463
g557
tp1464
a(S'chinese'
p1465
g557
tp1466
a(S'italian'
p1467
g557
tp1468
a(S'british'
p1469
g557
tp1470
a(S'british'
p1471
g557
tp1472
a(S'chinese'
p1473
g557
tp1474
a(S'italian'
p1475
g557
tp1476
a(S'turkish'
p1477
g557
tp1478
a(S'chinese'
p1479
g557
tp1480
a(S'british'
p1481
g557
tp1482
a(S'chinese'
p1483
g557
tp1484
a(S'turkish'
p1485
g557
tp1486
a(S'italian'
p1487
g557
tp1488
a(S'british'
p1489
g557
tp1490
a(S'british'
p1491
g557
tp1492
a(S'italian'
p1493
g557
tp1494
a(S'chinese'
p1495
g557
tp1496
a(S'belgian'
p1497
g440
tp1498
a(S'corsica'
p1499
g440
tp1500
a(S'english'
p1501
g440
tp1502
a(S'eastern'
p1503
g440
tp1504
a(S'catalan'
p1505
g440
tp1506
a(S'persian'
p1507
g440
tp1508
a(S'russian'
p1509
g440
tp1510
a(S'swedish'
p1511
g440
tp1512
a(S'canapes'
p1513
g440
tp1514
a(S'cb21ab'
p1515
S'[restaurant_postcode]'
p1516
tp1517
a(S'cb21dp'
p1518
S'[restaurant_postcode]'
p1519
tp1520
a(S'cb17ag'
p1521
S'[restaurant_postcode]'
p1522
tp1523
a(S'cb17dy'
p1524
S'[restaurant_postcode]'
p1525
tp1526
a(S'cb17aa'
p1527
S'[restaurant_postcode]'
p1528
tp1529
a(S'cb28pb'
p1530
S'[restaurant_postcode]'
p1531
tp1532
a(S'cb58pa'
p1533
S'[restaurant_postcode]'
p1534
tp1535
a(S'cb23nj'
p1536
S'[restaurant_postcode]'
p1537
tp1538
a(S'cb58jj'
p1539
S'[restaurant_postcode]'
p1540
tp1541
a(S'cb21db'
p1542
S'[restaurant_postcode]'
p1543
tp1544
a(S'eraina'
p1545
S'[restaurant_name]'
p1546
tp1547
a(S'cb23rh'
p1548
S'[restaurant_postcode]'
p1549
tp1550
a(S'cb21db'
p1551
S'[restaurant_postcode]'
p1552
tp1553
a(S'cb21ab'
p1554
S'[restaurant_postcode]'
p1555
tp1556
a(S'cb21uf'
p1557
S'[restaurant_postcode]'
p1558
tp1559
a(S'cb23pp'
p1560
S'[restaurant_postcode]'
p1561
tp1562
a(S'cb21aw'
p1563
S'[restaurant_postcode]'
p1564
tp1565
a(S'cb12qa'
p1566
S'[restaurant_postcode]'
p1567
tp1568
a(S'cb43le'
p1569
S'[restaurant_postcode]'
p1570
tp1571
a(S'cb21rt'
p1572
S'[restaurant_postcode]'
p1573
tp1574
a(S'cb12as'
p1575
S'[restaurant_postcode]'
p1576
tp1577
a(S'cb17dy'
p1578
S'[restaurant_postcode]'
p1579
tp1580
a(S'prezzo'
p1581
S'[restaurant_name]'
p1582
tp1583
a(S'cb30ad'
p1584
S'[restaurant_postcode]'
p1585
tp1586
a(S'cb12bd'
p1587
S'[restaurant_postcode]'
p1588
tp1589
a(S'cb21nt'
p1590
S'[restaurant_postcode]'
p1591
tp1592
a(S'cb23ar'
p1593
S'[restaurant_postcode]'
p1594
tp1595
a(S'cb11ln'
p1596
S'[restaurant_postcode]'
p1597
tp1598
a(S'cb12az'
p1599
S'[restaurant_postcode]'
p1600
tp1601
a(S'cb30ah'
p1602
S'[restaurant_postcode]'
p1603
tp1604
a(S'cb21su'
p1605
S'[restaurant_postcode]'
p1606
tp1607
a(S'cb39ey'
p1608
S'[restaurant_postcode]'
p1609
tp1610
a(S'cb21qa'
p1611
S'[restaurant_postcode]'
p1612
tp1613
a(S'cb30ah'
p1614
S'[restaurant_postcode]'
p1615
tp1616
a(S'cb23dt'
p1617
S'[restaurant_postcode]'
p1618
tp1619
a(S'cb30af'
p1620
S'[restaurant_postcode]'
p1621
tp1622
a(S'cb21uf'
p1623
S'[restaurant_postcode]'
p1624
tp1625
a(S'cb41jy'
p1626
S'[restaurant_postcode]'
p1627
tp1628
a(S'cb43ax'
p1629
S'[restaurant_postcode]'
p1630
tp1631
a(S'cb21tw'
p1632
S'[restaurant_postcode]'
p1633
tp1634
a(S'cb23ar'
p1635
S'[restaurant_postcode]'
p1636
tp1637
a(S'cb12lf'
p1638
S'[restaurant_postcode]'
p1639
tp1640
a(S'nandos'
p1641
S'[restaurant_name]'
p1642
tp1643
a(S'cb17dy'
p1644
S'[restaurant_postcode]'
p1645
tp1646
a(S'cb21eg'
p1647
S'[restaurant_postcode]'
p1648
tp1649
a(S'cb21sj'
p1650
S'[restaurant_postcode]'
p1651
tp1652
a(S'cb17dy'
p1653
S'[restaurant_postcode]'
p1654
tp1655
a(S'cb21rg'
p1656
S'[restaurant_postcode]'
p1657
tp1658
a(S'cb21dp'
p1659
S'[restaurant_postcode]'
p1660
tp1661
a(S'cb13nf'
p1662
S'[restaurant_postcode]'
p1663
tp1664
a(S'cb21rq'
p1665
S'[restaurant_postcode]'
p1666
tp1667
a(S'cb30af'
p1668
S'[restaurant_postcode]'
p1669
tp1670
a(S'cb11lh'
p1671
S'[restaurant_postcode]'
p1672
tp1673
a(S'cb41uy'
p1674
S'[restaurant_postcode]'
p1675
tp1676
a(S'cb11bg'
p1677
S'[restaurant_postcode]'
p1678
tp1679
a(S'cb30ad'
p1680
S'[restaurant_postcode]'
p1681
tp1682
a(S'cb58wr'
p1683
S'[restaurant_postcode]'
p1684
tp1685
a(S'cb21eg'
p1686
S'[restaurant_postcode]'
p1687
tp1688
a(S'cb21dp'
p1689
S'[restaurant_postcode]'
p1690
tp1691
a(S'cb21uw'
p1692
S'[restaurant_postcode]'
p1693
tp1694
a(S'cb23qf'
p1695
S'[restaurant_postcode]'
p1696
tp1697
a(S'cb12bd'
p1698
S'[restaurant_postcode]'
p1699
tp1700
a(S'cb23ll'
p1701
S'[restaurant_postcode]'
p1702
tp1703
a(S'cb21ab'
p1704
S'[restaurant_postcode]'
p1705
tp1706
a(S'cb58pa'
p1707
S'[restaurant_postcode]'
p1708
tp1709
a(S'cb23ar'
p1710
S'[restaurant_postcode]'
p1711
tp1712
a(S'cb41eh'
p1713
S'[restaurant_postcode]'
p1714
tp1715
a(S'cb41jy'
p1716
S'[restaurant_postcode]'
p1717
tp1718
a(S'cb23ll'
p1719
S'[restaurant_postcode]'
p1720
tp1721
a(S'cb21dp'
p1722
S'[restaurant_postcode]'
p1723
tp1724
a(S'cb43hl'
p1725
S'[restaurant_postcode]'
p1726
tp1727
a(S'meghna'
p1728
S'[restaurant_name]'
p1729
tp1730
a(S'cb43lf'
p1731
S'[restaurant_postcode]'
p1732
tp1733
a(S'cb21la'
p1734
S'[restaurant_postcode]'
p1735
tp1736
a(S'cb58aq'
p1737
S'[restaurant_postcode]'
p1738
tp1739
a(S'cb11dg'
p1740
S'[restaurant_postcode]'
p1741
tp1742
a(S'cb21qy'
p1743
S'[restaurant_postcode]'
p1744
tp1745
a(S'cb21rq'
p1746
S'[restaurant_postcode]'
p1747
tp1748
a(S'cb58ba'
p1749
S'[restaurant_postcode]'
p1750
tp1751
a(S'cb39ey'
p1752
S'[restaurant_postcode]'
p1753
tp1754
a(S'cb41uy'
p1755
S'[restaurant_postcode]'
p1756
tp1757
a(S'cb41nl'
p1758
S'[restaurant_postcode]'
p1759
tp1760
a(S'peking'
p1761
S'[restaurant_name]'
p1762
tp1763
a(S'cb28nx'
p1764
S'[restaurant_postcode]'
p1765
tp1766
a(S'cb17dy'
p1767
S'[restaurant_postcode]'
p1768
tp1769
a(S'cb30lx'
p1770
S'[restaurant_postcode]'
p1771
tp1772
a(S'cb39ey'
p1773
S'[restaurant_postcode]'
p1774
tp1775
a(S'cb30dq'
p1776
S'[restaurant_postcode]'
p1777
tp1778
a(S'cb58pa'
p1779
S'[restaurant_postcode]'
p1780
tp1781
a(S'cb41ep'
p1782
S'[restaurant_postcode]'
p1783
tp1784
a(S'cb58aq'
p1785
S'[restaurant_postcode]'
p1786
tp1787
a(S'cb11ln'
p1788
S'[restaurant_postcode]'
p1789
tp1790
a(S'cb21uj'
p1791
S'[restaurant_postcode]'
p1792
tp1793
a(S'cb12lf'
p1794
S'[restaurant_postcode]'
p1795
tp1796
a(S'cb11hr'
p1797
S'[restaurant_postcode]'
p1798
tp1799
a(S'cb23ju'
p1800
S'[restaurant_postcode]'
p1801
tp1802
a(S'cb21ug'
p1803
S'[restaurant_postcode]'
p1804
tp1805
a(S'cb30df'
p1806
S'[restaurant_postcode]'
p1807
tp1808
a(S'cb12bd'
p1809
S'[restaurant_postcode]'
p1810
tp1811
a(S'cb13nl'
p1812
S'[restaurant_postcode]'
p1813
tp1814
a(S'cb58rg'
p1815
S'[restaurant_postcode]'
p1816
tp1817
a(S'cb11dg'
p1818
S'[restaurant_postcode]'
p1819
tp1820
a(S'cb11ln'
p1821
S'[restaurant_postcode]'
p1822
tp1823
a(S'cb21ab'
p1824
S'[restaurant_postcode]'
p1825
tp1826
a(S'cb23nj'
p1827
S'[restaurant_postcode]'
p1828
tp1829
a(S'cb21sj'
p1830
S'[restaurant_postcode]'
p1831
tp1832
a(S'kymmoy'
p1833
S'[restaurant_name]'
p1834
tp1835
a(S'cb12as'
p1836
S'[restaurant_postcode]'
p1837
tp1838
a(S'cb19hx'
p1839
S'[restaurant_postcode]'
p1840
tp1841
a(S'shiraz'
p1842
S'[restaurant_name]'
p1843
tp1844
a(S'cb21dp'
p1845
S'[restaurant_postcode]'
p1846
tp1847
a(S'cb41ha'
p1848
S'[restaurant_postcode]'
p1849
tp1850
a(S'cb21uf'
p1851
S'[restaurant_postcode]'
p1852
tp1853
a(S'cb21uj'
p1854
S'[restaurant_postcode]'
p1855
tp1856
a(S'cb21nw'
p1857
S'[restaurant_postcode]'
p1858
tp1859
a(S'cb23jx'
p1860
S'[restaurant_postcode]'
p1861
tp1862
a(S'monday'
p1863
g1096
tp1864
a(S'friday'
p1865
g1096
tp1866
a(S'sunday'
p1867
g1096
tp1868
a(S'centre'
p1869
S'[value_area]'
p1870
tp1871
a(S'centre'
p1872
g1870
tp1873
a(S'centre'
p1874
g1870
tp1875
a(S'centre'
p1876
g1870
tp1877
a(S'centre'
p1878
g1870
tp1879
a(S'centre'
p1880
g1870
tp1881
a(S'centre'
p1882
g1870
tp1883
a(S'centre'
p1884
g1870
tp1885
a(S'centre'
p1886
g1870
tp1887
a(S'centre'
p1888
g1870
tp1889
a(S'centre'
p1890
g1870
tp1891
a(S'centre'
p1892
g1870
tp1893
a(S'centre'
p1894
g1870
tp1895
a(S'centre'
p1896
g1870
tp1897
a(S'centre'
p1898
g1870
tp1899
a(S'centre'
p1900
g1870
tp1901
a(S'centre'
p1902
g1870
tp1903
a(S'centre'
p1904
g1870
tp1905
a(S'centre'
p1906
g1870
tp1907
a(S'centre'
p1908
g1870
tp1909
a(S'centre'
p1910
g1870
tp1911
a(S'centre'
p1912
g1870
tp1913
a(S'centre'
p1914
g1870
tp1915
a(S'centre'
p1916
g1870
tp1917
a(S'centre'
p1918
g1870
tp1919
a(S'centre'
p1920
g1870
tp1921
a(S'centre'
p1922
g1870
tp1923
a(S'centre'
p1924
g1870
tp1925
a(S'centre'
p1926
g1870
tp1927
a(S'centre'
p1928
g1870
tp1929
a(S'centre'
p1930
g1870
tp1931
a(S'centre'
p1932
g1870
tp1933
a(S'centre'
p1934
g1870
tp1935
a(S'centre'
p1936
g1870
tp1937
a(S'centre'
p1938
g1870
tp1939
a(S'centre'
p1940
g1870
tp1941
a(S'centre'
p1942
g1870
tp1943
a(S'centre'
p1944
g1870
tp1945
a(S'centre'
p1946
g1870
tp1947
a(S'centre'
p1948
g1870
tp1949
a(S'centre'
p1950
g1870
tp1951
a(S'centre'
p1952
g1870
tp1953
a(S'centre'
p1954
g1870
tp1955
a(S'centre'
p1956
g1870
tp1957
a(S'centre'
p1958
g1870
tp1959
a(S'centre'
p1960
g1870
tp1961
a(S'centre'
p1962
g1870
tp1963
a(S'centre'
p1964
g1870
tp1965
a(S'centre'
p1966
g1870
tp1967
a(S'centre'
p1968
g1870
tp1969
a(S'centre'
p1970
g1870
tp1971
a(S'centre'
p1972
g1870
tp1973
a(S'centre'
p1974
g1870
tp1975
a(S'centre'
p1976
g1870
tp1977
a(S'centre'
p1978
g1870
tp1979
a(S'centre'
p1980
g1870
tp1981
a(S'centre'
p1982
g1870
tp1983
a(S'centre'
p1984
g1870
tp1985
a(S'centre'
p1986
g1870
tp1987
a(S'centre'
p1988
g1870
tp1989
a(S'centre'
p1990
g1870
tp1991
a(S'centre'
p1992
g1870
tp1993
a(S'centre'
p1994
g1870
tp1995
a(S'centre'
p1996
g1870
tp1997
a(S'centre'
p1998
g1870
tp1999
a(S'centre'
p2000
g1870
tp2001
a(S'centre'
p2002
g1870
tp2003
a(S'centre'
p2004
g1870
tp2005
a(S'centre'
p2006
g1870
tp2007
a(S'indian'
p2008
g557
tp2009
a(S'indian'
p2010
g557
tp2011
a(S'indian'
p2012
g557
tp2013
a(S'indian'
p2014
g557
tp2015
a(S'indian'
p2016
g557
tp2017
a(S'indian'
p2018
g557
tp2019
a(S'indian'
p2020
g557
tp2021
a(S'indian'
p2022
g557
tp2023
a(S'indian'
p2024
g557
tp2025
a(S'french'
p2026
g557
tp2027
a(S'korean'
p2028
g557
tp2029
a(S'indian'
p2030
g557
tp2031
a(S'indian'
p2032
g557
tp2033
a(S'indian'
p2034
g557
tp2035
a(S'indian'
p2036
g557
tp2037
a(S'indian'
p2038
g557
tp2039
a(S'indian'
p2040
g557
tp2041
a(S'indian'
p2042
g557
tp2043
a(S'indian'
p2044
g557
tp2045
a(S'indian'
p2046
g557
tp2047
a(S'indian'
p2048
g557
tp2049
a(S'indian'
p2050
g557
tp2051
a(S'indian'
p2052
g557
tp2053
a(S'indian'
p2054
g557
tp2055
a(S'french'
p2056
g557
tp2057
a(S'kosher'
p2058
g440
tp2059
a(S'german'
p2060
g440
tp2061
a(S'bistro'
p2062
g440
tp2063
a(S'danish'
p2064
g440
tp2065
a(S'afghan'
p2066
g440
tp2067
a(S'fusion'
p2068
g440
tp2069
a(S'tuscan'
p2070
g440
tp2071
a(S'basque'
p2072
g440
tp2073
a(S'ethnic'
p2074
g440
tp2075
a(S'polish'
p2076
g440
tp2077
a(S'center'
p2078
S'[value_area]'
p2079
tp2080
a(S'around'
p2081
g2079
tp2082
a(S'cocum'
p2083
S'[restaurant_name]'
p2084
tp2085
a(S'2 two'
p2086
S'[restaurant_name]'
p2087
tp2088
a(S'cotto'
p2089
S'[restaurant_name]'
p2090
tp2091
a(S'hakka'
p2092
S'[restaurant_name]'
p2093
tp2094
a(S'south'
p2095
g1870
tp2096
a(S'south'
p2097
g1870
tp2098
a(S'south'
p2099
g1870
tp2100
a(S'south'
p2101
g1870
tp2102
a(S'south'
p2103
g1870
tp2104
a(S'north'
p2105
g1870
tp2106
a(S'north'
p2107
g1870
tp2108
a(S'south'
p2109
g1870
tp2110
a(S'south'
p2111
g1870
tp2112
a(S'north'
p2113
g1870
tp2114
a(S'north'
p2115
g1870
tp2116
a(S'north'
p2117
g1870
tp2118
a(S'north'
p2119
g1870
tp2120
a(S'north'
p2121
g1870
tp2122
a(S'north'
p2123
g1870
tp2124
a(S'south'
p2125
g1870
tp2126
a(S'south'
p2127
g1870
tp2128
a(S'north'
p2129
g1870
tp2130
a(S'cheap'
p2131
g1107
tp2132
a(S'cheap'
p2133
g1107
tp2134
a(S'cheap'
p2135
g1107
tp2136
a(S'cheap'
p2137
g1107
tp2138
a(S'cheap'
p2139
g1107
tp2140
a(S'cheap'
p2141
g1107
tp2142
a(S'cheap'
p2143
g1107
tp2144
a(S'cheap'
p2145
g1107
tp2146
a(S'cheap'
p2147
g1107
tp2148
a(S'cheap'
p2149
g1107
tp2150
a(S'cheap'
p2151
g1107
tp2152
a(S'cheap'
p2153
g1107
tp2154
a(S'cheap'
p2155
g1107
tp2156
a(S'cheap'
p2157
g1107
tp2158
a(S'cheap'
p2159
g1107
tp2160
a(S'cheap'
p2161
g1107
tp2162
a(S'cheap'
p2163
g1107
tp2164
a(S'cheap'
p2165
g1107
tp2166
a(S'cheap'
p2167
g1107
tp2168
a(S'cheap'
p2169
g1107
tp2170
a(S'cheap'
p2171
g1107
tp2172
a(S'cheap'
p2173
g1107
tp2174
a(S'asian'
p2175
g440
tp2176
a(S'welsh'
p2177
g440
tp2178
a(S'swiss'
p2179
g440
tp2180
a(S'halal'
p2181
g440
tp2182
a(S'irish'
p2183
g440
tp2184
a(S'third'
p2185
g440
tp2186
a(S'world'
p2187
g440
tp2188
a(S'cuban'
p2189
g440
tp2190
a(S'greek'
p2191
g440
tp2192
a(S'pizza'
p2193
g440
tp2194
a(S'efes'
p2195
S'[restaurant_name]'
p2196
tp2197
a(S'cote'
p2198
S'[restaurant_name]'
p2199
tp2200
a(S'east'
p2201
g1870
tp2202
a(S'east'
p2203
g1870
tp2204
a(S'east'
p2205
g1870
tp2206
a(S'west'
p2207
g1870
tp2208
a(S'west'
p2209
g1870
tp2210
a(S'west'
p2211
g1870
tp2212
a(S'west'
p2213
g1870
tp2214
a(S'west'
p2215
g1870
tp2216
a(S'west'
p2217
g1870
tp2218
a(S'west'
p2219
g1870
tp2220
a(S'west'
p2221
g1870
tp2222
a(S'east'
p2223
g1870
tp2224
a(S'east'
p2225
g1870
tp2226
a(S'west'
p2227
g1870
tp2228
a(S'west'
p2229
g1870
tp2230
a(S'west'
p2231
g1870
tp2232
a(S'west'
p2233
g1870
tp2234
a(S'west'
p2235
g1870
tp2236
a(S'east'
p2237
g1870
tp2238
a(S'west'
p2239
g1870
tp2240
a(S'east'
p2241
g1870
tp2242
a(S'east'
p2243
g1870
tp2244
a(S'east'
p2245
g1870
tp2246
a(S'thai'
p2247
g557
tp2248
a(S'thai'
p2249
g557
tp2250
a(S'ask'
p2251
S'[restaurant_name]'
p2252
tp2253
a(S'17'
p2254
S'[restaurant_name]'
p2255
tp2256
a(S'j'
p2257
S'[restaurant_name]'
p2258
tp2259
a.